target datalayout = "e-m:e-p270:32:32-p271:32:32-p272:64:64-i64:64-i128:128-f80:128-n8:16:32:64-S128"
target triple = "x86_64-pc-linux-gnu"

%struct.jv = type { i8, i8, i16, i32, %union.anon }
%union.anon = type { ptr }
%struct.jq_state = type { ptr, ptr, ptr, ptr, ptr, %struct.jv, %struct.stack, i32, i32, i32, %struct.jv, %struct.jv, i32, i32, i32, i32, i32, %struct.jv, %struct.jv, %struct.jv, ptr, ptr, ptr, ptr, ptr, ptr }
%struct.stack = type { ptr, i32, i32 }

@.str.21 = private unnamed_addr constant [10 x i8] c"JQ_ORIGIN\00", align 1

; Function Attrs: nounwind uwtable
define dso_local { i64, ptr } @jq_get_attr(ptr noundef %0, i64 %1, ptr %2) #0 {
  %4 = alloca %struct.jv, align 8
  %5 = alloca %struct.jv, align 8
  %6 = alloca ptr, align 8
  %7 = alloca %struct.jv, align 8
  %8 = getelementptr inbounds nuw { i64, ptr }, ptr %5, i32 0, i32 0
  store i64 %1, ptr %8, align 8
  %9 = getelementptr inbounds nuw { i64, ptr }, ptr %5, i32 0, i32 1
  store ptr %2, ptr %9, align 8
  store ptr %0, ptr %6, align 8, !tbaa !4
  %10 = load ptr, ptr %6, align 8, !tbaa !4
  %11 = getelementptr inbounds nuw %struct.jq_state, ptr %10, i32 0, i32 19
  %12 = getelementptr inbounds nuw { i64, ptr }, ptr %11, i32 0, i32 0
  %13 = load i64, ptr %12, align 8
  %14 = getelementptr inbounds nuw { i64, ptr }, ptr %11, i32 0, i32 1
  %15 = load ptr, ptr %14, align 8
  %16 = call { i64, ptr } @jv_copy(i64 %13, ptr %15)
  %17 = getelementptr inbounds nuw { i64, ptr }, ptr %7, i32 0, i32 0
  %18 = extractvalue { i64, ptr } %16, 0
  store i64 %18, ptr %17, align 8
  %19 = getelementptr inbounds nuw { i64, ptr }, ptr %7, i32 0, i32 1
  %20 = extractvalue { i64, ptr } %16, 1
  store ptr %20, ptr %19, align 8
  %21 = getelementptr inbounds nuw { i64, ptr }, ptr %7, i32 0, i32 0
  %22 = load i64, ptr %21, align 8
  %23 = getelementptr inbounds nuw { i64, ptr }, ptr %7, i32 0, i32 1
  %24 = load ptr, ptr %23, align 8
  %25 = getelementptr inbounds nuw { i64, ptr }, ptr %5, i32 0, i32 0
  %26 = load i64, ptr %25, align 8
  %27 = getelementptr inbounds nuw { i64, ptr }, ptr %5, i32 0, i32 1
  %28 = load ptr, ptr %27, align 8
  %29 = call { i64, ptr } @jv_object_get(i64 %22, ptr %24, i64 %26, ptr %28)
  %30 = getelementptr inbounds nuw { i64, ptr }, ptr %4, i32 0, i32 0
  %31 = extractvalue { i64, ptr } %29, 0
  store i64 %31, ptr %30, align 8
  %32 = getelementptr inbounds nuw { i64, ptr }, ptr %4, i32 0, i32 1
  %33 = extractvalue { i64, ptr } %29, 1
  store ptr %33, ptr %32, align 8
  %34 = load { i64, ptr }, ptr %4, align 8
  ret { i64, ptr } %34
}

; Function Attrs: nounwind uwtable
define dso_local { i64, ptr } @jq_get_jq_origin(ptr noundef %0) #0 {
  %2 = alloca %struct.jv, align 8
  %3 = alloca ptr, align 8
  %4 = alloca %struct.jv, align 8
  store ptr %0, ptr %3, align 8, !tbaa !4
  %5 = load ptr, ptr %3, align 8, !tbaa !4
  %6 = call { i64, ptr } @jv_string(ptr noundef @.str.21)
  %7 = getelementptr inbounds nuw { i64, ptr }, ptr %4, i32 0, i32 0
  %8 = extractvalue { i64, ptr } %6, 0
  store i64 %8, ptr %7, align 8
  %9 = getelementptr inbounds nuw { i64, ptr }, ptr %4, i32 0, i32 1
  %10 = extractvalue { i64, ptr } %6, 1
  store ptr %10, ptr %9, align 8
  %11 = getelementptr inbounds nuw { i64, ptr }, ptr %4, i32 0, i32 0
  %12 = load i64, ptr %11, align 8
  %13 = getelementptr inbounds nuw { i64, ptr }, ptr %4, i32 0, i32 1
  %14 = load ptr, ptr %13, align 8
  %15 = call { i64, ptr } @jq_get_attr(ptr noundef %5, i64 %12, ptr %14)
  %16 = getelementptr inbounds nuw { i64, ptr }, ptr %2, i32 0, i32 0
  %17 = extractvalue { i64, ptr } %15, 0
  store i64 %17, ptr %16, align 8
  %18 = getelementptr inbounds nuw { i64, ptr }, ptr %2, i32 0, i32 1
  %19 = extractvalue { i64, ptr } %15, 1
  store ptr %19, ptr %18, align 8
  %20 = load { i64, ptr }, ptr %2, align 8
  ret { i64, ptr } %20
}